; Function Attrs: mustprogress nounwind uwtable
define hidden noundef zeroext i1 @_ZN17JfrStorageControl14increment_fullEv(ptr noundef nonnull align 8 dereferenceable(49) %0) local_unnamed_addr #3 align 2 {
  %2 = getelementptr inbounds i8, ptr %0, i64 8
  %3 = tail call noundef i64 asm sideeffect "lock xaddq $0,($2)", "=r,0,r,~{cc},~{memory},~{dirflag},~{fpsr},~{flags}"(i64 1, ptr nonnull %2) #5, !srcloc !6
  %4 = add i64 %3, 1
  %5 = getelementptr inbounds i8, ptr %0, i64 48
  %6 = load i8, ptr %5, align 8
  %7 = trunc i8 %6 to i1
  %8 = getelementptr inbounds i8, ptr %0, i64 24
  %9 = load i64, ptr %8, align 8
  %10 = icmp ugt i64 %4, %9
  %11 = select i1 %7, i1 %10, i1 false
  ret i1 %11
}